target datalayout = "e-m:e-p270:32:32-p271:32:32-p272:64:64-i64:64-i128:128-f80:128-n8:16:32:64-S128"
target triple = "x86_64-pc-linux-gnu"

%"class.sls::bv_lookahead" = type { %class.bv_util, ptr, ptr, ptr, %"struct.sls::bv_lookahead::config", %"struct.sls::bv_lookahead::stats", %"class.sls::bvect", %"class.sls::bvect", %class.ptr_vector, %class.svector.1, %class.vector.3, %class.obj_mark, double, double, %"class.sls::bvect", ptr, ptr, %class.ptr_vector, %class.vector.4, %class.obj_mark, i32, %class.tracked_uint_set, i32, i32 }
%class.bv_util = type { %class.bv_recognizers, ptr, ptr }
%class.bv_recognizers = type { i32 }
%"struct.sls::bv_lookahead::config" = type <{ i8, [7 x i8], double, i32, i32, i8, i8, i8, i8, i32, i32, i32, i32, i8, [3 x i8], i32, i32, i32, i8, [3 x i8], double, double, i8, [7 x i8], double, i8, i8, i8, [5 x i8] }>
%"struct.sls::bv_lookahead::stats" = type { i32, i32, i32, i32, i32, i32 }
%class.svector.1 = type { %class.vector.2 }
%class.vector.2 = type { ptr }
%class.vector.3 = type { ptr }
%"class.sls::bvect" = type <{ %class.svector, i32, i32, i32, [4 x i8] }>
%class.svector = type { %class.vector }
%class.vector = type { ptr }
%class.ptr_vector = type { %class.vector.0 }
%class.vector.0 = type { ptr }
%class.vector.4 = type { ptr }
%class.obj_mark = type { [8 x i8], %class.bit_vector }
%class.bit_vector = type { i32, i32, ptr }
%class.tracked_uint_set = type { %class.svector.5, %class.svector }
%class.svector.5 = type { %class.vector.6 }
%class.vector.6 = type { ptr }
%"struct.sls::bv_lookahead::bool_info" = type <{ i32, [4 x i8], double, i32, [4 x i8] }>
%class.ast = type { i32, i32, i32, i32 }

; Function Attrs: mustprogress nounwind uwtable
define linkonce_odr hidden noundef ptr @_ZN6vectorIN3sls12bv_lookahead9bool_infoELb1EjE3endEv(ptr noundef nonnull align 8 dereferenceable(8) %0) #6 comdat align 2 {
  %2 = alloca ptr, align 8
  store ptr %0, ptr %2, align 8, !tbaa !123
  %3 = load ptr, ptr %2, align 8
  %4 = getelementptr inbounds nuw %class.vector.4, ptr %3, i32 0, i32 0
  %5 = load ptr, ptr %4, align 8, !tbaa !125
  %6 = call noundef i32 @_ZNK6vectorIN3sls12bv_lookahead9bool_infoELb1EjE4sizeEv(ptr noundef nonnull align 8 dereferenceable(8) %3)
  %7 = zext i32 %6 to i64
  %8 = getelementptr inbounds nuw %"struct.sls::bv_lookahead::bool_info", ptr %5, i64 %7
  ret ptr %8
}

; Function Attrs: mustprogress nounwind uwtable
define linkonce_odr hidden noundef i32 @_ZNK6vectorIN3sls12bv_lookahead9bool_infoELb1EjE8capacityEv(ptr noundef nonnull align 8 dereferenceable(8) %0) #6 comdat align 2 {
  %2 = alloca i32, align 4
  %3 = alloca ptr, align 8
  store ptr %0, ptr %3, align 8, !tbaa !123
  %4 = load ptr, ptr %3, align 8
  %5 = getelementptr inbounds nuw %class.vector.4, ptr %4, i32 0, i32 0
  %6 = load ptr, ptr %5, align 8, !tbaa !125
  %7 = icmp eq ptr %6, null
  br i1 %7, label %8, label %9

8:                                                ; preds = %1
  store i32 0, ptr %2, align 4
  br label %14

9:                                                ; preds = %1
  %10 = getelementptr inbounds nuw %class.vector.4, ptr %4, i32 0, i32 0
  %11 = load ptr, ptr %10, align 8, !tbaa !125
  %12 = getelementptr inbounds i32, ptr %11, i64 -2
  %13 = load i32, ptr %12, align 4, !tbaa !185
  store i32 %13, ptr %2, align 4
  br label %14

14:                                               ; preds = %9, %8
  %15 = load i32, ptr %2, align 4
  ret i32 %15
}

; Function Attrs: mustprogress uwtable
define linkonce_odr hidden void @_ZN6vectorIN3sls12bv_lookahead9bool_infoELb1EjE6shrinkEj(ptr noundef nonnull align 8 dereferenceable(8) %0, i32 noundef %1) #4 comdat align 2 {
  %3 = alloca ptr, align 8
  %4 = alloca i32, align 4
  %5 = alloca ptr, align 8
  %6 = alloca ptr, align 8
  store ptr %0, ptr %3, align 8, !tbaa !123
  store i32 %1, ptr %4, align 4, !tbaa !185
  %7 = load ptr, ptr %3, align 8
  %8 = getelementptr inbounds nuw %class.vector.4, ptr %7, i32 0, i32 0
  %9 = load ptr, ptr %8, align 8, !tbaa !125
  %10 = icmp ne ptr %9, null
  br i1 %10, label %11, label %31

11:                                               ; preds = %2
  call void @llvm.lifetime.start.p0(i64 8, ptr %5) #3
  %12 = getelementptr inbounds nuw %class.vector.4, ptr %7, i32 0, i32 0
  %13 = load ptr, ptr %12, align 8, !tbaa !125
  %14 = load i32, ptr %4, align 4, !tbaa !185
  %15 = zext i32 %14 to i64
  %16 = getelementptr inbounds nuw %"struct.sls::bv_lookahead::bool_info", ptr %13, i64 %15
  store ptr %16, ptr %5, align 8, !tbaa !356
  call void @llvm.lifetime.start.p0(i64 8, ptr %6) #3
  %17 = call noundef ptr @_ZN6vectorIN3sls12bv_lookahead9bool_infoELb1EjE3endEv(ptr noundef nonnull align 8 dereferenceable(8) %7)
  store ptr %17, ptr %6, align 8, !tbaa !356
  br label %18

18:                                               ; preds = %23, %11
  %19 = load ptr, ptr %5, align 8, !tbaa !356
  %20 = load ptr, ptr %6, align 8, !tbaa !356
  %21 = icmp ne ptr %19, %20
  br i1 %21, label %22, label %26

22:                                               ; preds = %18
  br label %23

23:                                               ; preds = %22
  %24 = load ptr, ptr %5, align 8, !tbaa !356
  %25 = getelementptr inbounds nuw %"struct.sls::bv_lookahead::bool_info", ptr %24, i32 1
  store ptr %25, ptr %5, align 8, !tbaa !356
  br label %18, !llvm.loop !540

26:                                               ; preds = %18
  call void @llvm.lifetime.end.p0(i64 8, ptr %6) #3
  call void @llvm.lifetime.end.p0(i64 8, ptr %5) #3
  %27 = load i32, ptr %4, align 4, !tbaa !185
  %28 = getelementptr inbounds nuw %class.vector.4, ptr %7, i32 0, i32 0
  %29 = load ptr, ptr %28, align 8, !tbaa !125
  %30 = getelementptr inbounds i32, ptr %29, i64 -1
  store i32 %27, ptr %30, align 4, !tbaa !185
  br label %32

31:                                               ; preds = %2
  br label %32

32:                                               ; preds = %31, %26
  ret void
}

; Function Attrs: mustprogress uwtable
define linkonce_odr hidden void @_ZN6vectorIN3sls12bv_lookahead9bool_infoELb1EjE6resizeIS2_EEvjT_z(ptr noundef nonnull align 8 dereferenceable(8) %0, i32 noundef %1, ptr noundef byval(%"struct.sls::bv_lookahead::bool_info") align 8 %2, ...) #4 comdat align 2 {
  %4 = alloca ptr, align 8
  %5 = alloca i32, align 4
  %6 = alloca i32, align 4
  %7 = alloca i32, align 4
  %8 = alloca ptr, align 8
  %9 = alloca ptr, align 8
  store ptr %0, ptr %4, align 8, !tbaa !123
  store i32 %1, ptr %5, align 4, !tbaa !185
  %10 = load ptr, ptr %4, align 8
  call void @llvm.lifetime.start.p0(i64 4, ptr %6) #3
  %11 = call noundef i32 @_ZNK6vectorIN3sls12bv_lookahead9bool_infoELb1EjE4sizeEv(ptr noundef nonnull align 8 dereferenceable(8) %10)
  store i32 %11, ptr %6, align 4, !tbaa !185
  %12 = load i32, ptr %5, align 4, !tbaa !185
  %13 = load i32, ptr %6, align 4, !tbaa !185
  %14 = icmp ule i32 %12, %13
  br i1 %14, label %15, label %17

15:                                               ; preds = %3
  %16 = load i32, ptr %5, align 4, !tbaa !185
  call void @_ZN6vectorIN3sls12bv_lookahead9bool_infoELb1EjE6shrinkEj(ptr noundef nonnull align 8 dereferenceable(8) %10, i32 noundef %16)
  store i32 1, ptr %7, align 4
  br label %48

17:                                               ; preds = %3
  br label %18

18:                                               ; preds = %22, %17
  %19 = load i32, ptr %5, align 4, !tbaa !185
  %20 = call noundef i32 @_ZNK6vectorIN3sls12bv_lookahead9bool_infoELb1EjE8capacityEv(ptr noundef nonnull align 8 dereferenceable(8) %10)
  %21 = icmp ugt i32 %19, %20
  br i1 %21, label %22, label %23

22:                                               ; preds = %18
  call void @_ZN6vectorIN3sls12bv_lookahead9bool_infoELb1EjE13expand_vectorEv(ptr noundef nonnull align 8 dereferenceable(8) %10)
  br label %18, !llvm.loop !538

23:                                               ; preds = %18
  %24 = load i32, ptr %5, align 4, !tbaa !185
  %25 = getelementptr inbounds nuw %class.vector.4, ptr %10, i32 0, i32 0
  %26 = load ptr, ptr %25, align 8, !tbaa !125
  %27 = getelementptr inbounds i32, ptr %26, i64 -1
  store i32 %24, ptr %27, align 4, !tbaa !185
  call void @llvm.lifetime.start.p0(i64 8, ptr %8) #3
  %28 = getelementptr inbounds nuw %class.vector.4, ptr %10, i32 0, i32 0
  %29 = load ptr, ptr %28, align 8, !tbaa !125
  %30 = load i32, ptr %6, align 4, !tbaa !185
  %31 = zext i32 %30 to i64
  %32 = getelementptr inbounds nuw %"struct.sls::bv_lookahead::bool_info", ptr %29, i64 %31
  store ptr %32, ptr %8, align 8, !tbaa !356
  call void @llvm.lifetime.start.p0(i64 8, ptr %9) #3
  %33 = getelementptr inbounds nuw %class.vector.4, ptr %10, i32 0, i32 0
  %34 = load ptr, ptr %33, align 8, !tbaa !125
  %35 = load i32, ptr %5, align 4, !tbaa !185
  %36 = zext i32 %35 to i64
  %37 = getelementptr inbounds nuw %"struct.sls::bv_lookahead::bool_info", ptr %34, i64 %36
  store ptr %37, ptr %9, align 8, !tbaa !356
  br label %38

38:                                               ; preds = %44, %23
  %39 = load ptr, ptr %8, align 8, !tbaa !356
  %40 = load ptr, ptr %9, align 8, !tbaa !356
  %41 = icmp ne ptr %39, %40
  br i1 %41, label %42, label %47

42:                                               ; preds = %38
  %43 = load ptr, ptr %8, align 8, !tbaa !356
  call void @llvm.memcpy.p0.p0.i64(ptr align 8 %43, ptr align 8 %2, i64 24, i1 false), !tbaa.struct !357
  br label %44

44:                                               ; preds = %42
  %45 = load ptr, ptr %8, align 8, !tbaa !356
  %46 = getelementptr inbounds nuw %"struct.sls::bv_lookahead::bool_info", ptr %45, i32 1
  store ptr %46, ptr %8, align 8, !tbaa !356
  br label %38, !llvm.loop !539

47:                                               ; preds = %38
  call void @llvm.lifetime.end.p0(i64 8, ptr %9) #3
  call void @llvm.lifetime.end.p0(i64 8, ptr %8) #3
  store i32 0, ptr %7, align 4
  br label %48

48:                                               ; preds = %47, %15
  call void @llvm.lifetime.end.p0(i64 4, ptr %6) #3
  %49 = load i32, ptr %7, align 4
  switch i32 %49, label %51 [
    i32 0, label %50
    i32 1, label %50
  ]

50:                                               ; preds = %48, %48
  ret void

51:                                               ; preds = %48
  unreachable
}

; Function Attrs: mustprogress nounwind uwtable
define linkonce_odr hidden noundef i32 @_ZNK6vectorIN3sls12bv_lookahead9bool_infoELb1EjE4sizeEv(ptr noundef nonnull align 8 dereferenceable(8) %0) #6 comdat align 2 {
  %2 = alloca i32, align 4
  %3 = alloca ptr, align 8
  store ptr %0, ptr %3, align 8, !tbaa !123
  %4 = load ptr, ptr %3, align 8
  %5 = getelementptr inbounds nuw %class.vector.4, ptr %4, i32 0, i32 0
  %6 = load ptr, ptr %5, align 8, !tbaa !125
  %7 = icmp eq ptr %6, null
  br i1 %7, label %8, label %9

8:                                                ; preds = %1
  store i32 0, ptr %2, align 4
  br label %14

9:                                                ; preds = %1
  %10 = getelementptr inbounds nuw %class.vector.4, ptr %4, i32 0, i32 0
  %11 = load ptr, ptr %10, align 8, !tbaa !125
  %12 = getelementptr inbounds i32, ptr %11, i64 -1
  %13 = load i32, ptr %12, align 4, !tbaa !185
  store i32 %13, ptr %2, align 4
  br label %14

14:                                               ; preds = %9, %8
  %15 = load i32, ptr %2, align 4
  ret i32 %15
}

; Function Attrs: mustprogress nounwind uwtable
define linkonce_odr hidden noundef nonnull align 8 dereferenceable(20) ptr @_ZN6vectorIN3sls12bv_lookahead9bool_infoELb1EjEixEj(ptr noundef nonnull align 8 dereferenceable(8) %0, i32 noundef %1) #6 comdat align 2 {
  %3 = alloca ptr, align 8
  %4 = alloca i32, align 4
  store ptr %0, ptr %3, align 8, !tbaa !123
  store i32 %1, ptr %4, align 4, !tbaa !185
  %5 = load ptr, ptr %3, align 8
  %6 = getelementptr inbounds nuw %class.vector.4, ptr %5, i32 0, i32 0
  %7 = load ptr, ptr %6, align 8, !tbaa !125
  %8 = load i32, ptr %4, align 4, !tbaa !185
  %9 = zext i32 %8 to i64
  %10 = getelementptr inbounds nuw %"struct.sls::bv_lookahead::bool_info", ptr %7, i64 %9
  ret ptr %10
}

; Function Attrs: mustprogress uwtable
define linkonce_odr hidden void @_ZN6vectorIN3sls12bv_lookahead9bool_infoELb1EjE7reserveEjRKS2_(ptr noundef nonnull align 8 dereferenceable(8) %0, i32 noundef %1, ptr noundef nonnull align 8 dereferenceable(20) %2) #4 comdat align 2 {
  %4 = alloca ptr, align 8
  %5 = alloca i32, align 4
  %6 = alloca ptr, align 8
  %7 = alloca %"struct.sls::bv_lookahead::bool_info", align 8
  store ptr %0, ptr %4, align 8, !tbaa !123
  store i32 %1, ptr %5, align 4, !tbaa !185
  store ptr %2, ptr %6, align 8, !tbaa !356
  %8 = load ptr, ptr %4, align 8
  %9 = load i32, ptr %5, align 4, !tbaa !185
  %10 = call noundef i32 @_ZNK6vectorIN3sls12bv_lookahead9bool_infoELb1EjE4sizeEv(ptr noundef nonnull align 8 dereferenceable(8) %8)
  %11 = icmp ugt i32 %9, %10
  br i1 %11, label %12, label %15

12:                                               ; preds = %3
  %13 = load i32, ptr %5, align 4, !tbaa !185
  %14 = load ptr, ptr %6, align 8, !tbaa !356
  call void @llvm.memcpy.p0.p0.i64(ptr align 8 %7, ptr align 8 %14, i64 24, i1 false), !tbaa.struct !357
  call void (ptr, i32, ptr, ...) @_ZN6vectorIN3sls12bv_lookahead9bool_infoELb1EjE6resizeIS2_EEvjT_z(ptr noundef nonnull align 8 dereferenceable(8) %8, i32 noundef %13, ptr noundef byval(%"struct.sls::bv_lookahead::bool_info") align 8 %7)
  br label %15

15:                                               ; preds = %12, %3
  ret void
}

; Function Attrs: mustprogress nounwind uwtable
define linkonce_odr hidden noundef i32 @_ZNK3ast6get_idEv(ptr noundef nonnull align 4 dereferenceable(16) %0) #6 comdat align 2 {
  %2 = alloca ptr, align 8
  store ptr %0, ptr %2, align 8, !tbaa !222
  %3 = load ptr, ptr %2, align 8
  %4 = getelementptr inbounds nuw %class.ast, ptr %3, i32 0, i32 0
  %5 = load i32, ptr %4, align 4, !tbaa !358
  ret i32 %5
}

; Function Attrs: mustprogress uwtable
define hidden noundef nonnull align 8 dereferenceable(20) ptr @_ZN3sls12bv_lookahead13get_bool_infoEP4expr(ptr noundef nonnull align 8 dereferenceable(400) %0, ptr noundef %1) #4 align 2 {
  %3 = alloca ptr, align 8
  %4 = alloca ptr, align 8
  %5 = alloca %"struct.sls::bv_lookahead::bool_info", align 8
  store ptr %0, ptr %3, align 8, !tbaa !3
  store ptr %1, ptr %4, align 8, !tbaa !173
  %6 = load ptr, ptr %3, align 8
  %7 = getelementptr inbounds nuw %"class.sls::bv_lookahead", ptr %6, i32 0, i32 18
  %8 = load ptr, ptr %4, align 8, !tbaa !173
  %9 = call noundef i32 @_ZNK3ast6get_idEv(ptr noundef nonnull align 4 dereferenceable(16) %8)
  %10 = add i32 %9, 1
  call void @llvm.lifetime.start.p0(i64 24, ptr %5) #3
  %11 = getelementptr inbounds nuw %"struct.sls::bv_lookahead::bool_info", ptr %5, i32 0, i32 0
  %12 = getelementptr inbounds nuw %"class.sls::bv_lookahead", ptr %6, i32 0, i32 4
  %13 = getelementptr inbounds nuw %"struct.sls::bv_lookahead::config", ptr %12, i32 0, i32 3
  %14 = load i32, ptr %13, align 8, !tbaa !355
  store i32 %14, ptr %11, align 8, !tbaa !338
  %15 = getelementptr inbounds nuw %"struct.sls::bv_lookahead::bool_info", ptr %5, i32 0, i32 2
  store double 0.000000e+00, ptr %15, align 8, !tbaa !246
  %16 = getelementptr inbounds nuw %"struct.sls::bv_lookahead::bool_info", ptr %5, i32 0, i32 3
  store i32 1, ptr %16, align 8, !tbaa !248
  call void @_ZN6vectorIN3sls12bv_lookahead9bool_infoELb1EjE7reserveEjRKS2_(ptr noundef nonnull align 8 dereferenceable(8) %7, i32 noundef %10, ptr noundef nonnull align 8 dereferenceable(20) %5)
  call void @llvm.lifetime.end.p0(i64 24, ptr %5) #3
  %17 = getelementptr inbounds nuw %"class.sls::bv_lookahead", ptr %6, i32 0, i32 18
  %18 = load ptr, ptr %4, align 8, !tbaa !173
  %19 = call noundef i32 @_ZNK3ast6get_idEv(ptr noundef nonnull align 4 dereferenceable(16) %18)
  %20 = call noundef nonnull align 8 dereferenceable(20) ptr @_ZN6vectorIN3sls12bv_lookahead9bool_infoELb1EjEixEj(ptr noundef nonnull align 8 dereferenceable(8) %17, i32 noundef %19)
  ret ptr %20
}