; Function Attrs: mustprogress uwtable
define hidden noundef nonnull align 8 dereferenceable(20) ptr @_ZN3sls12bv_lookahead13get_bool_infoEP4expr(ptr noundef nonnull align 8 dereferenceable(400) %0, ptr noundef readonly captures(none) %1) local_unnamed_addr #3 align 2 {
  %3 = getelementptr inbounds nuw i8, ptr %0, i64 336
  %4 = load i32, ptr %1, align 4, !tbaa !173
  %5 = add i32 %4, 1
  %6 = getelementptr inbounds nuw i8, ptr %0, i64 64
  %7 = load i32, ptr %6, align 8, !tbaa !175
  %8 = load ptr, ptr %3, align 8, !tbaa !176
  %9 = icmp eq ptr %8, null
  br i1 %9, label %_ZNK6vectorIN3sls12bv_lookahead9bool_infoELb1EjE4sizeEv.exit.i, label %_ZNK6vectorIN3sls12bv_lookahead9bool_infoELb1EjE4sizeEv.exit.thread.i

_ZNK6vectorIN3sls12bv_lookahead9bool_infoELb1EjE4sizeEv.exit.i: ; preds = %2
  %.not.i = icmp ne i32 %5, 0
  tail call void @llvm.assume(i1 %.not.i)
  br label %_ZNK6vectorIN3sls12bv_lookahead9bool_infoELb1EjE4sizeEv.exit.i.i.preheader

_ZNK6vectorIN3sls12bv_lookahead9bool_infoELb1EjE4sizeEv.exit.thread.i: ; preds = %2
  %10 = getelementptr inbounds i8, ptr %8, i64 -4
  %11 = load i32, ptr %10, align 4, !tbaa !133
  %12 = icmp ugt i32 %5, %11
  br i1 %12, label %_ZNK6vectorIN3sls12bv_lookahead9bool_infoELb1EjE4sizeEv.exit.i.i.preheader, label %_ZN6vectorIN3sls12bv_lookahead9bool_infoELb1EjE7reserveEjRKS2_.exit

_ZNK6vectorIN3sls12bv_lookahead9bool_infoELb1EjE4sizeEv.exit.i.i.preheader: ; preds = %_ZNK6vectorIN3sls12bv_lookahead9bool_infoELb1EjE4sizeEv.exit.i, %_ZNK6vectorIN3sls12bv_lookahead9bool_infoELb1EjE4sizeEv.exit.thread.i
  %.ph = phi ptr [ %8, %_ZNK6vectorIN3sls12bv_lookahead9bool_infoELb1EjE4sizeEv.exit.thread.i ], [ null, %_ZNK6vectorIN3sls12bv_lookahead9bool_infoELb1EjE4sizeEv.exit.i ]
  %.0.i16.i.i.ph = phi i32 [ %11, %_ZNK6vectorIN3sls12bv_lookahead9bool_infoELb1EjE4sizeEv.exit.thread.i ], [ 0, %_ZNK6vectorIN3sls12bv_lookahead9bool_infoELb1EjE4sizeEv.exit.i ]
  br label %_ZNK6vectorIN3sls12bv_lookahead9bool_infoELb1EjE4sizeEv.exit.i.i

_ZNK6vectorIN3sls12bv_lookahead9bool_infoELb1EjE4sizeEv.exit.i.i: ; preds = %_ZNK6vectorIN3sls12bv_lookahead9bool_infoELb1EjE4sizeEv.exit.i.i.preheader, %_ZNK6vectorIN3sls12bv_lookahead9bool_infoELb1EjE8capacityEv.exit.thread.i.i
  %13 = phi ptr [ %.pr.pre.i.i, %_ZNK6vectorIN3sls12bv_lookahead9bool_infoELb1EjE8capacityEv.exit.thread.i.i ], [ %.ph, %_ZNK6vectorIN3sls12bv_lookahead9bool_infoELb1EjE4sizeEv.exit.i.i.preheader ]
  %14 = icmp eq ptr %13, null
  br i1 %14, label %_ZNK6vectorIN3sls12bv_lookahead9bool_infoELb1EjE8capacityEv.exit.thread.i.i, label %_ZNK6vectorIN3sls12bv_lookahead9bool_infoELb1EjE8capacityEv.exit.i.i

_ZNK6vectorIN3sls12bv_lookahead9bool_infoELb1EjE8capacityEv.exit.i.i: ; preds = %_ZNK6vectorIN3sls12bv_lookahead9bool_infoELb1EjE4sizeEv.exit.i.i
  %15 = getelementptr inbounds i8, ptr %13, i64 -8
  %16 = load i32, ptr %15, align 4, !tbaa !133
  %17 = icmp ugt i32 %5, %16
  br i1 %17, label %_ZNK6vectorIN3sls12bv_lookahead9bool_infoELb1EjE8capacityEv.exit.thread.i.i, label %18

_ZNK6vectorIN3sls12bv_lookahead9bool_infoELb1EjE8capacityEv.exit.thread.i.i: ; preds = %_ZNK6vectorIN3sls12bv_lookahead9bool_infoELb1EjE8capacityEv.exit.i.i, %_ZNK6vectorIN3sls12bv_lookahead9bool_infoELb1EjE4sizeEv.exit.i.i
  tail call void @_ZN6vectorIN3sls12bv_lookahead9bool_infoELb1EjE13expand_vectorEv(ptr noundef nonnull align 8 dereferenceable(8) %3)
  %.pr.pre.i.i = load ptr, ptr %3, align 8, !tbaa !176
  br label %_ZNK6vectorIN3sls12bv_lookahead9bool_infoELb1EjE4sizeEv.exit.i.i, !llvm.loop !184

18:                                               ; preds = %_ZNK6vectorIN3sls12bv_lookahead9bool_infoELb1EjE8capacityEv.exit.i.i
  %19 = getelementptr inbounds i8, ptr %13, i64 -4
  store i32 %5, ptr %19, align 4, !tbaa !133
  %20 = zext i32 %5 to i64
  %21 = getelementptr inbounds nuw %"struct.sls::bv_lookahead::bool_info", ptr %13, i64 %20
  %.not1218.i.i = icmp eq i32 %.0.i16.i.i.ph, %5
  br i1 %.not1218.i.i, label %_ZN6vectorIN3sls12bv_lookahead9bool_infoELb1EjE7reserveEjRKS2_.exit, label %.lr.ph.preheader.i.i

.lr.ph.preheader.i.i:                             ; preds = %18
  %22 = zext i32 %.0.i16.i.i.ph to i64
  %23 = getelementptr inbounds nuw %"struct.sls::bv_lookahead::bool_info", ptr %13, i64 %22
  br label %.lr.ph.i.i

.lr.ph.i.i:                                       ; preds = %.lr.ph.i.i, %.lr.ph.preheader.i.i
  %.019.i.i = phi ptr [ %24, %.lr.ph.i.i ], [ %23, %.lr.ph.preheader.i.i ]
  store i32 %7, ptr %.019.i.i, align 8, !tbaa !133
  %.sroa.8.0..019.i.i.sroa_idx = getelementptr inbounds nuw i8, ptr %.019.i.i, i64 8
  store double 0.000000e+00, ptr %.sroa.8.0..019.i.i.sroa_idx, align 8, !tbaa !185
  %.sroa.10.0..019.i.i.sroa_idx = getelementptr inbounds nuw i8, ptr %.019.i.i, i64 16
  store i32 1, ptr %.sroa.10.0..019.i.i.sroa_idx, align 8, !tbaa !133
  %24 = getelementptr inbounds nuw i8, ptr %.019.i.i, i64 24
  %.not12.i.i = icmp eq ptr %24, %21
  br i1 %.not12.i.i, label %_ZN6vectorIN3sls12bv_lookahead9bool_infoELb1EjE7reserveEjRKS2_.exit, label %.lr.ph.i.i, !llvm.loop !186

_ZN6vectorIN3sls12bv_lookahead9bool_infoELb1EjE7reserveEjRKS2_.exit: ; preds = %.lr.ph.i.i, %18, %_ZNK6vectorIN3sls12bv_lookahead9bool_infoELb1EjE4sizeEv.exit.thread.i
  %25 = phi ptr [ %13, %18 ], [ %8, %_ZNK6vectorIN3sls12bv_lookahead9bool_infoELb1EjE4sizeEv.exit.thread.i ], [ %13, %.lr.ph.i.i ]
  %26 = load i32, ptr %1, align 4, !tbaa !173
  %27 = zext i32 %26 to i64
  %28 = getelementptr inbounds nuw %"struct.sls::bv_lookahead::bool_info", ptr %25, i64 %27
  ret ptr %28
}